; Function Attrs: mustprogress nounwind uwtable
define hidden noundef ptr @_ZN8GraphKit21access_atomic_xchg_atEP4NodeS1_PK7TypePtriS1_PK4Type9BasicTypem(ptr noundef nonnull align 8 dereferenceable(84) %0, ptr noundef %1, ptr noundef %2, ptr noundef %3, i32 noundef %4, ptr noundef %5, ptr noundef %6, i8 noundef zeroext %7, i64 noundef %8) local_unnamed_addr #0 align 2 {
  %10 = alloca %class.C2AccessValuePtr, align 8
  %11 = alloca %class.C2AtomicParseAccess, align 8
  store ptr %2, ptr %10, align 8
  %12 = getelementptr inbounds i8, ptr %10, i64 8
  store ptr %3, ptr %12, align 8
  %13 = or i64 %8, 412316860416
  %14 = getelementptr inbounds i8, ptr %11, i64 8
  store i64 %13, ptr %14, align 8
  %15 = getelementptr inbounds i8, ptr %11, i64 16
  store i8 %7, ptr %15, align 8
  %16 = getelementptr inbounds i8, ptr %11, i64 24
  store ptr %1, ptr %16, align 8
  %17 = getelementptr inbounds i8, ptr %11, i64 32
  store ptr %10, ptr %17, align 8
  %18 = getelementptr inbounds i8, ptr %11, i64 40
  store ptr null, ptr %18, align 8
  %19 = getelementptr inbounds i8, ptr %11, i64 48
  store i8 0, ptr %19, align 8
  store ptr getelementptr inbounds inrange(-16, 32) (i8, ptr @_ZTV13C2ParseAccess, i64 16), ptr %11, align 8
  %20 = getelementptr inbounds i8, ptr %11, i64 56
  store ptr %0, ptr %20, align 8
  call void @_ZN8C2Access16fixup_decoratorsEv(ptr noundef nonnull align 8 dereferenceable(49) %11) #13
  store ptr getelementptr inbounds inrange(-16, 32) (i8, ptr @_ZTV19C2AtomicParseAccess, i64 16), ptr %11, align 8
  %21 = getelementptr inbounds i8, ptr %11, i64 64
  store ptr null, ptr %21, align 8
  %22 = getelementptr inbounds i8, ptr %11, i64 72
  store i32 %4, ptr %22, align 8
  %23 = load i64, ptr %14, align 8
  %24 = and i64 %23, 2048
  %.not = icmp eq i64 %24, 0
  %25 = getelementptr inbounds i8, ptr %0, i64 72
  %26 = load ptr, ptr %25, align 8
  br i1 %.not, label %29, label %27

27:                                               ; preds = %9
  %28 = call noundef ptr @_ZNK12BarrierSetC214atomic_xchg_atER19C2AtomicParseAccessP4NodePK4Type(ptr noundef nonnull align 8 dereferenceable(8) %26, ptr noundef nonnull align 8 dereferenceable(76) %11, ptr noundef %5, ptr noundef %6) #13
  br label %34

29:                                               ; preds = %9
  %30 = load ptr, ptr %26, align 8
  %31 = getelementptr inbounds i8, ptr %30, i64 88
  %32 = load ptr, ptr %31, align 8
  %33 = call noundef ptr %32(ptr noundef nonnull align 8 dereferenceable(8) %26, ptr noundef nonnull align 8 dereferenceable(76) %11, ptr noundef %5, ptr noundef %6) #13
  br label %34

34:                                               ; preds = %29, %27
  %.0 = phi ptr [ %28, %27 ], [ %33, %29 ]
  ret ptr %.0
}